

Microchip Technology PIC LITE Macro Assembler V1.35 build -356382666 
                                                                                               Sun Jan 10 15:45:49 2016

Microchip Technology Omniscient Code Generator v1.35 (Free mode) build 201507080246
     1                           	processor	12F1822
     2                           	opt	pw 120
     3                           	opt	lm
     4                           	psect	nvCOMMON,global,class=COMMON,space=1,delta=1
     5                           	psect	cinit,global,class=CODE,merge=1,delta=2
     6                           	psect	cstackCOMMON,global,class=COMMON,space=1,delta=1
     7                           	psect	maintext,global,class=CODE,merge=1,split=1,delta=2
     8                           	psect	text1,local,class=CODE,merge=1,delta=2
     9                           	psect	text2,local,class=CODE,merge=1,delta=2
    10                           	psect	text3,local,class=CODE,merge=1,delta=2
    11                           	psect	text4,local,class=CODE,merge=1,delta=2
    12                           	psect	text5,local,class=CODE,merge=1,delta=2
    13                           	psect	intentry,global,class=CODE,delta=2
    14                           	psect	text7,local,class=CODE,merge=1,delta=2
    15                           	psect	text8,local,class=CODE,merge=1,delta=2
    16                           	psect	text9,local,class=CODE,merge=1,delta=2
    17                           	psect	text10,local,class=CODE,merge=1,delta=2
    18                           	dabs	1,0x7E,2
    19  0000                     	;# 
    20  0001                     	;# 
    21  0002                     	;# 
    22  0003                     	;# 
    23  0004                     	;# 
    24  0005                     	;# 
    25  0006                     	;# 
    26  0007                     	;# 
    27  0008                     	;# 
    28  0009                     	;# 
    29  000A                     	;# 
    30  000B                     	;# 
    31  000C                     	;# 
    32  0011                     	;# 
    33  0012                     	;# 
    34  0015                     	;# 
    35  0016                     	;# 
    36  0016                     	;# 
    37  0017                     	;# 
    38  0018                     	;# 
    39  0019                     	;# 
    40  001A                     	;# 
    41  001B                     	;# 
    42  001C                     	;# 
    43  001E                     	;# 
    44  001F                     	;# 
    45  008C                     	;# 
    46  0091                     	;# 
    47  0092                     	;# 
    48  0095                     	;# 
    49  0096                     	;# 
    50  0097                     	;# 
    51  0098                     	;# 
    52  0099                     	;# 
    53  009A                     	;# 
    54  009B                     	;# 
    55  009B                     	;# 
    56  009C                     	;# 
    57  009D                     	;# 
    58  009E                     	;# 
    59  010C                     	;# 
    60  0111                     	;# 
    61  0112                     	;# 
    62  0115                     	;# 
    63  0116                     	;# 
    64  0117                     	;# 
    65  0118                     	;# 
    66  0119                     	;# 
    67  011A                     	;# 
    68  011B                     	;# 
    69  011D                     	;# 
    70  011D                     	;# 
    71  018C                     	;# 
    72  0191                     	;# 
    73  0191                     	;# 
    74  0192                     	;# 
    75  0193                     	;# 
    76  0193                     	;# 
    77  0193                     	;# 
    78  0194                     	;# 
    79  0195                     	;# 
    80  0196                     	;# 
    81  0199                     	;# 
    82  019A                     	;# 
    83  019B                     	;# 
    84  019B                     	;# 
    85  019B                     	;# 
    86  019B                     	;# 
    87  019C                     	;# 
    88  019C                     	;# 
    89  019D                     	;# 
    90  019E                     	;# 
    91  019F                     	;# 
    92  020C                     	;# 
    93  0211                     	;# 
    94  0211                     	;# 
    95  0212                     	;# 
    96  0212                     	;# 
    97  0213                     	;# 
    98  0213                     	;# 
    99  0214                     	;# 
   100  0214                     	;# 
   101  0215                     	;# 
   102  0215                     	;# 
   103  0215                     	;# 
   104  0216                     	;# 
   105  0216                     	;# 
   106  0217                     	;# 
   107  0217                     	;# 
   108  0291                     	;# 
   109  0291                     	;# 
   110  0292                     	;# 
   111  0293                     	;# 
   112  0294                     	;# 
   113  0295                     	;# 
   114  0295                     	;# 
   115  0296                     	;# 
   116  0391                     	;# 
   117  0392                     	;# 
   118  0393                     	;# 
   119  039A                     	;# 
   120  039C                     	;# 
   121  039D                     	;# 
   122  039E                     	;# 
   123  039F                     	;# 
   124  0FE4                     	;# 
   125  0FE5                     	;# 
   126  0FE6                     	;# 
   127  0FE7                     	;# 
   128  0FE8                     	;# 
   129  0FE9                     	;# 
   130  0FEA                     	;# 
   131  0FEB                     	;# 
   132  0FED                     	;# 
   133  0FEE                     	;# 
   134  0FEF                     	;# 
   135  0000                     	;# 
   136  0001                     	;# 
   137  0002                     	;# 
   138  0003                     	;# 
   139  0004                     	;# 
   140  0005                     	;# 
   141  0006                     	;# 
   142  0007                     	;# 
   143  0008                     	;# 
   144  0009                     	;# 
   145  000A                     	;# 
   146  000B                     	;# 
   147  000C                     	;# 
   148  0011                     	;# 
   149  0012                     	;# 
   150  0015                     	;# 
   151  0016                     	;# 
   152  0016                     	;# 
   153  0017                     	;# 
   154  0018                     	;# 
   155  0019                     	;# 
   156  001A                     	;# 
   157  001B                     	;# 
   158  001C                     	;# 
   159  001E                     	;# 
   160  001F                     	;# 
   161  008C                     	;# 
   162  0091                     	;# 
   163  0092                     	;# 
   164  0095                     	;# 
   165  0096                     	;# 
   166  0097                     	;# 
   167  0098                     	;# 
   168  0099                     	;# 
   169  009A                     	;# 
   170  009B                     	;# 
   171  009B                     	;# 
   172  009C                     	;# 
   173  009D                     	;# 
   174  009E                     	;# 
   175  010C                     	;# 
   176  0111                     	;# 
   177  0112                     	;# 
   178  0115                     	;# 
   179  0116                     	;# 
   180  0117                     	;# 
   181  0118                     	;# 
   182  0119                     	;# 
   183  011A                     	;# 
   184  011B                     	;# 
   185  011D                     	;# 
   186  011D                     	;# 
   187  018C                     	;# 
   188  0191                     	;# 
   189  0191                     	;# 
   190  0192                     	;# 
   191  0193                     	;# 
   192  0193                     	;# 
   193  0193                     	;# 
   194  0194                     	;# 
   195  0195                     	;# 
   196  0196                     	;# 
   197  0199                     	;# 
   198  019A                     	;# 
   199  019B                     	;# 
   200  019B                     	;# 
   201  019B                     	;# 
   202  019B                     	;# 
   203  019C                     	;# 
   204  019C                     	;# 
   205  019D                     	;# 
   206  019E                     	;# 
   207  019F                     	;# 
   208  020C                     	;# 
   209  0211                     	;# 
   210  0211                     	;# 
   211  0212                     	;# 
   212  0212                     	;# 
   213  0213                     	;# 
   214  0213                     	;# 
   215  0214                     	;# 
   216  0214                     	;# 
   217  0215                     	;# 
   218  0215                     	;# 
   219  0215                     	;# 
   220  0216                     	;# 
   221  0216                     	;# 
   222  0217                     	;# 
   223  0217                     	;# 
   224  0291                     	;# 
   225  0291                     	;# 
   226  0292                     	;# 
   227  0293                     	;# 
   228  0294                     	;# 
   229  0295                     	;# 
   230  0295                     	;# 
   231  0296                     	;# 
   232  0391                     	;# 
   233  0392                     	;# 
   234  0393                     	;# 
   235  039A                     	;# 
   236  039C                     	;# 
   237  039D                     	;# 
   238  039E                     	;# 
   239  039F                     	;# 
   240  0FE4                     	;# 
   241  0FE5                     	;# 
   242  0FE6                     	;# 
   243  0FE7                     	;# 
   244  0FE8                     	;# 
   245  0FE9                     	;# 
   246  0FEA                     	;# 
   247  0FEB                     	;# 
   248  0FED                     	;# 
   249  0FEE                     	;# 
   250  0FEF                     	;# 
   251  0000                     	;# 
   252  0001                     	;# 
   253  0002                     	;# 
   254  0003                     	;# 
   255  0004                     	;# 
   256  0005                     	;# 
   257  0006                     	;# 
   258  0007                     	;# 
   259  0008                     	;# 
   260  0009                     	;# 
   261  000A                     	;# 
   262  000B                     	;# 
   263  000C                     	;# 
   264  0011                     	;# 
   265  0012                     	;# 
   266  0015                     	;# 
   267  0016                     	;# 
   268  0016                     	;# 
   269  0017                     	;# 
   270  0018                     	;# 
   271  0019                     	;# 
   272  001A                     	;# 
   273  001B                     	;# 
   274  001C                     	;# 
   275  001E                     	;# 
   276  001F                     	;# 
   277  008C                     	;# 
   278  0091                     	;# 
   279  0092                     	;# 
   280  0095                     	;# 
   281  0096                     	;# 
   282  0097                     	;# 
   283  0098                     	;# 
   284  0099                     	;# 
   285  009A                     	;# 
   286  009B                     	;# 
   287  009B                     	;# 
   288  009C                     	;# 
   289  009D                     	;# 
   290  009E                     	;# 
   291  010C                     	;# 
   292  0111                     	;# 
   293  0112                     	;# 
   294  0115                     	;# 
   295  0116                     	;# 
   296  0117                     	;# 
   297  0118                     	;# 
   298  0119                     	;# 
   299  011A                     	;# 
   300  011B                     	;# 
   301  011D                     	;# 
   302  011D                     	;# 
   303  018C                     	;# 
   304  0191                     	;# 
   305  0191                     	;# 
   306  0192                     	;# 
   307  0193                     	;# 
   308  0193                     	;# 
   309  0193                     	;# 
   310  0194                     	;# 
   311  0195                     	;# 
   312  0196                     	;# 
   313  0199                     	;# 
   314  019A                     	;# 
   315  019B                     	;# 
   316  019B                     	;# 
   317  019B                     	;# 
   318  019B                     	;# 
   319  019C                     	;# 
   320  019C                     	;# 
   321  019D                     	;# 
   322  019E                     	;# 
   323  019F                     	;# 
   324  020C                     	;# 
   325  0211                     	;# 
   326  0211                     	;# 
   327  0212                     	;# 
   328  0212                     	;# 
   329  0213                     	;# 
   330  0213                     	;# 
   331  0214                     	;# 
   332  0214                     	;# 
   333  0215                     	;# 
   334  0215                     	;# 
   335  0215                     	;# 
   336  0216                     	;# 
   337  0216                     	;# 
   338  0217                     	;# 
   339  0217                     	;# 
   340  0291                     	;# 
   341  0291                     	;# 
   342  0292                     	;# 
   343  0293                     	;# 
   344  0294                     	;# 
   345  0295                     	;# 
   346  0295                     	;# 
   347  0296                     	;# 
   348  0391                     	;# 
   349  0392                     	;# 
   350  0393                     	;# 
   351  039A                     	;# 
   352  039C                     	;# 
   353  039D                     	;# 
   354  039E                     	;# 
   355  039F                     	;# 
   356  0FE4                     	;# 
   357  0FE5                     	;# 
   358  0FE6                     	;# 
   359  0FE7                     	;# 
   360  0FE8                     	;# 
   361  0FE9                     	;# 
   362  0FEA                     	;# 
   363  0FEB                     	;# 
   364  0FED                     	;# 
   365  0FEE                     	;# 
   366  0FEF                     	;# 
   367  0000                     	;# 
   368  0001                     	;# 
   369  0002                     	;# 
   370  0003                     	;# 
   371  0004                     	;# 
   372  0005                     	;# 
   373  0006                     	;# 
   374  0007                     	;# 
   375  0008                     	;# 
   376  0009                     	;# 
   377  000A                     	;# 
   378  000B                     	;# 
   379  000C                     	;# 
   380  0011                     	;# 
   381  0012                     	;# 
   382  0015                     	;# 
   383  0016                     	;# 
   384  0016                     	;# 
   385  0017                     	;# 
   386  0018                     	;# 
   387  0019                     	;# 
   388  001A                     	;# 
   389  001B                     	;# 
   390  001C                     	;# 
   391  001E                     	;# 
   392  001F                     	;# 
   393  008C                     	;# 
   394  0091                     	;# 
   395  0092                     	;# 
   396  0095                     	;# 
   397  0096                     	;# 
   398  0097                     	;# 
   399  0098                     	;# 
   400  0099                     	;# 
   401  009A                     	;# 
   402  009B                     	;# 
   403  009B                     	;# 
   404  009C                     	;# 
   405  009D                     	;# 
   406  009E                     	;# 
   407  010C                     	;# 
   408  0111                     	;# 
   409  0112                     	;# 
   410  0115                     	;# 
   411  0116                     	;# 
   412  0117                     	;# 
   413  0118                     	;# 
   414  0119                     	;# 
   415  011A                     	;# 
   416  011B                     	;# 
   417  011D                     	;# 
   418  011D                     	;# 
   419  018C                     	;# 
   420  0191                     	;# 
   421  0191                     	;# 
   422  0192                     	;# 
   423  0193                     	;# 
   424  0193                     	;# 
   425  0193                     	;# 
   426  0194                     	;# 
   427  0195                     	;# 
   428  0196                     	;# 
   429  0199                     	;# 
   430  019A                     	;# 
   431  019B                     	;# 
   432  019B                     	;# 
   433  019B                     	;# 
   434  019B                     	;# 
   435  019C                     	;# 
   436  019C                     	;# 
   437  019D                     	;# 
   438  019E                     	;# 
   439  019F                     	;# 
   440  020C                     	;# 
   441  0211                     	;# 
   442  0211                     	;# 
   443  0212                     	;# 
   444  0212                     	;# 
   445  0213                     	;# 
   446  0213                     	;# 
   447  0214                     	;# 
   448  0214                     	;# 
   449  0215                     	;# 
   450  0215                     	;# 
   451  0215                     	;# 
   452  0216                     	;# 
   453  0216                     	;# 
   454  0217                     	;# 
   455  0217                     	;# 
   456  0291                     	;# 
   457  0291                     	;# 
   458  0292                     	;# 
   459  0293                     	;# 
   460  0294                     	;# 
   461  0295                     	;# 
   462  0295                     	;# 
   463  0296                     	;# 
   464  0391                     	;# 
   465  0392                     	;# 
   466  0393                     	;# 
   467  039A                     	;# 
   468  039C                     	;# 
   469  039D                     	;# 
   470  039E                     	;# 
   471  039F                     	;# 
   472  0FE4                     	;# 
   473  0FE5                     	;# 
   474  0FE6                     	;# 
   475  0FE7                     	;# 
   476  0FE8                     	;# 
   477  0FE9                     	;# 
   478  0FEA                     	;# 
   479  0FEB                     	;# 
   480  0FED                     	;# 
   481  0FEE                     	;# 
   482  0FEF                     	;# 
   483  0000                     	;# 
   484  0001                     	;# 
   485  0002                     	;# 
   486  0003                     	;# 
   487  0004                     	;# 
   488  0005                     	;# 
   489  0006                     	;# 
   490  0007                     	;# 
   491  0008                     	;# 
   492  0009                     	;# 
   493  000A                     	;# 
   494  000B                     	;# 
   495  000C                     	;# 
   496  0011                     	;# 
   497  0012                     	;# 
   498  0015                     	;# 
   499  0016                     	;# 
   500  0016                     	;# 
   501  0017                     	;# 
   502  0018                     	;# 
   503  0019                     	;# 
   504  001A                     	;# 
   505  001B                     	;# 
   506  001C                     	;# 
   507  001E                     	;# 
   508  001F                     	;# 
   509  008C                     	;# 
   510  0091                     	;# 
   511  0092                     	;# 
   512  0095                     	;# 
   513  0096                     	;# 
   514  0097                     	;# 
   515  0098                     	;# 
   516  0099                     	;# 
   517  009A                     	;# 
   518  009B                     	;# 
   519  009B                     	;# 
   520  009C                     	;# 
   521  009D                     	;# 
   522  009E                     	;# 
   523  010C                     	;# 
   524  0111                     	;# 
   525  0112                     	;# 
   526  0115                     	;# 
   527  0116                     	;# 
   528  0117                     	;# 
   529  0118                     	;# 
   530  0119                     	;# 
   531  011A                     	;# 
   532  011B                     	;# 
   533  011D                     	;# 
   534  011D                     	;# 
   535  018C                     	;# 
   536  0191                     	;# 
   537  0191                     	;# 
   538  0192                     	;# 
   539  0193                     	;# 
   540  0193                     	;# 
   541  0193                     	;# 
   542  0194                     	;# 
   543  0195                     	;# 
   544  0196                     	;# 
   545  0199                     	;# 
   546  019A                     	;# 
   547  019B                     	;# 
   548  019B                     	;# 
   549  019B                     	;# 
   550  019B                     	;# 
   551  019C                     	;# 
   552  019C                     	;# 
   553  019D                     	;# 
   554  019E                     	;# 
   555  019F                     	;# 
   556  020C                     	;# 
   557  0211                     	;# 
   558  0211                     	;# 
   559  0212                     	;# 
   560  0212                     	;# 
   561  0213                     	;# 
   562  0213                     	;# 
   563  0214                     	;# 
   564  0214                     	;# 
   565  0215                     	;# 
   566  0215                     	;# 
   567  0215                     	;# 
   568  0216                     	;# 
   569  0216                     	;# 
   570  0217                     	;# 
   571  0217                     	;# 
   572  0291                     	;# 
   573  0291                     	;# 
   574  0292                     	;# 
   575  0293                     	;# 
   576  0294                     	;# 
   577  0295                     	;# 
   578  0295                     	;# 
   579  0296                     	;# 
   580  0391                     	;# 
   581  0392                     	;# 
   582  0393                     	;# 
   583  039A                     	;# 
   584  039C                     	;# 
   585  039D                     	;# 
   586  039E                     	;# 
   587  039F                     	;# 
   588  0FE4                     	;# 
   589  0FE5                     	;# 
   590  0FE6                     	;# 
   591  0FE7                     	;# 
   592  0FE8                     	;# 
   593  0FE9                     	;# 
   594  0FEA                     	;# 
   595  0FEB                     	;# 
   596  0FED                     	;# 
   597  0FEE                     	;# 
   598  0FEF                     	;# 
   599  0000                     	;# 
   600  0001                     	;# 
   601  0002                     	;# 
   602  0003                     	;# 
   603  0004                     	;# 
   604  0005                     	;# 
   605  0006                     	;# 
   606  0007                     	;# 
   607  0008                     	;# 
   608  0009                     	;# 
   609  000A                     	;# 
   610  000B                     	;# 
   611  000C                     	;# 
   612  0011                     	;# 
   613  0012                     	;# 
   614  0015                     	;# 
   615  0016                     	;# 
   616  0016                     	;# 
   617  0017                     	;# 
   618  0018                     	;# 
   619  0019                     	;# 
   620  001A                     	;# 
   621  001B                     	;# 
   622  001C                     	;# 
   623  001E                     	;# 
   624  001F                     	;# 
   625  008C                     	;# 
   626  0091                     	;# 
   627  0092                     	;# 
   628  0095                     	;# 
   629  0096                     	;# 
   630  0097                     	;# 
   631  0098                     	;# 
   632  0099                     	;# 
   633  009A                     	;# 
   634  009B                     	;# 
   635  009B                     	;# 
   636  009C                     	;# 
   637  009D                     	;# 
   638  009E                     	;# 
   639  010C                     	;# 
   640  0111                     	;# 
   641  0112                     	;# 
   642  0115                     	;# 
   643  0116                     	;# 
   644  0117                     	;# 
   645  0118                     	;# 
   646  0119                     	;# 
   647  011A                     	;# 
   648  011B                     	;# 
   649  011D                     	;# 
   650  011D                     	;# 
   651  018C                     	;# 
   652  0191                     	;# 
   653  0191                     	;# 
   654  0192                     	;# 
   655  0193                     	;# 
   656  0193                     	;# 
   657  0193                     	;# 
   658  0194                     	;# 
   659  0195                     	;# 
   660  0196                     	;# 
   661  0199                     	;# 
   662  019A                     	;# 
   663  019B                     	;# 
   664  019B                     	;# 
   665  019B                     	;# 
   666  019B                     	;# 
   667  019C                     	;# 
   668  019C                     	;# 
   669  019D                     	;# 
   670  019E                     	;# 
   671  019F                     	;# 
   672  020C                     	;# 
   673  0211                     	;# 
   674  0211                     	;# 
   675  0212                     	;# 
   676  0212                     	;# 
   677  0213                     	;# 
   678  0213                     	;# 
   679  0214                     	;# 
   680  0214                     	;# 
   681  0215                     	;# 
   682  0215                     	;# 
   683  0215                     	;# 
   684  0216                     	;# 
   685  0216                     	;# 
   686  0217                     	;# 
   687  0217                     	;# 
   688  0291                     	;# 
   689  0291                     	;# 
   690  0292                     	;# 
   691  0293                     	;# 
   692  0294                     	;# 
   693  0295                     	;# 
   694  0295                     	;# 
   695  0296                     	;# 
   696  0391                     	;# 
   697  0392                     	;# 
   698  0393                     	;# 
   699  039A                     	;# 
   700  039C                     	;# 
   701  039D                     	;# 
   702  039E                     	;# 
   703  039F                     	;# 
   704  0FE4                     	;# 
   705  0FE5                     	;# 
   706  0FE6                     	;# 
   707  0FE7                     	;# 
   708  0FE8                     	;# 
   709  0FE9                     	;# 
   710  0FEA                     	;# 
   711  0FEB                     	;# 
   712  0FED                     	;# 
   713  0FEE                     	;# 
   714  0FEF                     	;# 
   715                           
   716                           	psect	nvCOMMON
   717  0073                     __pnvCOMMON:	
   718  0073                     _timer1ReloadVal:	
   719  0073                     	ds	2
   720  000B                     _INTCONbits	set	11
   721  0011                     _PIR1bits	set	17
   722  0012                     _PIR2bits	set	18
   723  0018                     _T1CON	set	24
   724  0018                     _T1CONbits	set	24
   725  0019                     _T1GCON	set	25
   726  0019                     _T1GCONbits	set	25
   727  0017                     _TMR1H	set	23
   728  0016                     _TMR1L	set	22
   729  0095                     _OPTION_REGbits	set	149
   730  0099                     _OSCCON	set	153
   731  009A                     _OSCSTAT	set	154
   732  0098                     _OSCTUNE	set	152
   733  0091                     _PIE1bits	set	145
   734  0092                     _PIE2bits	set	146
   735  008C                     _TRISA	set	140
   736  011D                     _APFCON	set	285
   737  0111                     _CM1CON0	set	273
   738  0111                     _CM1CON0bits	set	273
   739  0112                     _CM1CON1	set	274
   740  010C                     _LATA	set	268
   741  0865                     _LATA5	set	2149
   742  018C                     _ANSELA	set	396
   743  020C                     _WPUA	set	524
   744                           
   745                           ; #config settings
   746  0000                     
   747                           	psect	cinit
   748  001E                     start_initialization:	
   749  001E                     __initialization:	
   750  001E                     end_of_initialization:	
   751                           ;End of C runtime variable initialization code
   752                           
   753  001E                     __end_of__initialization:	
   754  001E  107E               	bcf	int$flags,0	;clear compiler interrupt flag (level 1)
   755  001F  0020               	movlb	0
   756  0020  286F               	ljmp	_main	;jump to C main() function
   757                           
   758                           	psect	cstackCOMMON
   759  0070                     __pcstackCOMMON:	
   760  0070                     ?_OSCILLATOR_Initialize:	
   761  0070                     ?_TMR1_Initialize:	
   762                           ; 0 bytes @ 0x0
   763                           
   764  0070                     ?_TMR1_StartTimer:	
   765                           ; 0 bytes @ 0x0
   766                           
   767  0070                     ??_TMR1_StartTimer:	
   768                           ; 0 bytes @ 0x0
   769                           
   770  0070                     ?_TMR1_StopTimer:	
   771                           ; 0 bytes @ 0x0
   772                           
   773  0070                     ??_TMR1_StopTimer:	
   774                           ; 0 bytes @ 0x0
   775                           
   776  0070                     ?_TMR1_ISR:	
   777                           ; 0 bytes @ 0x0
   778                           
   779  0070                     ??_TMR1_ISR:	
   780                           ; 0 bytes @ 0x0
   781                           
   782  0070                     ?_CMP1_Initialize:	
   783                           ; 0 bytes @ 0x0
   784                           
   785  0070                     ?_CMP1_ISR:	
   786                           ; 0 bytes @ 0x0
   787                           
   788  0070                     ??_CMP1_ISR:	
   789                           ; 0 bytes @ 0x0
   790                           
   791  0070                     ?_PIN_MANAGER_Initialize:	
   792                           ; 0 bytes @ 0x0
   793                           
   794  0070                     ?_INTERRUPT_InterruptManager:	
   795                           ; 0 bytes @ 0x0
   796                           
   797  0070                     ?_SYSTEM_Initialize:	
   798                           ; 0 bytes @ 0x0
   799                           
   800  0070                     ?_main:	
   801                           ; 0 bytes @ 0x0
   802                           
   803                           
   804                           ; 0 bytes @ 0x0
   805  0070                     	ds	2
   806  0072                     ??_INTERRUPT_InterruptManager:	
   807                           
   808                           ; 0 bytes @ 0x2
   809  0072                     	ds	1
   810  0073                     ??_OSCILLATOR_Initialize:	
   811  0073                     ??_TMR1_Initialize:	
   812                           ; 0 bytes @ 0x3
   813                           
   814  0073                     ??_CMP1_Initialize:	
   815                           ; 0 bytes @ 0x3
   816                           
   817  0073                     ??_PIN_MANAGER_Initialize:	
   818                           ; 0 bytes @ 0x3
   819                           
   820  0073                     ??_SYSTEM_Initialize:	
   821                           ; 0 bytes @ 0x3
   822                           
   823  0073                     ??_main:	
   824                           ; 0 bytes @ 0x3
   825                           
   826                           
   827                           	psect	maintext
   828  006F                     __pmaintext:	
   829                           ; 0 bytes @ 0x3
   830 ;;
   831 ;;Main: autosize = 0, tempsize = 0, incstack = 0, save=0
   832 ;;
   833 ;; *************** function _main *****************
   834 ;; Defined at:
   835 ;;		line 52 in file "main.c"
   836 ;; Parameters:    Size  Location     Type
   837 ;;		None
   838 ;; Auto vars:     Size  Location     Type
   839 ;;		None
   840 ;; Return value:  Size  Location     Type
   841 ;;		None               void
   842 ;; Registers used:
   843 ;;		wreg, status,2, status,0, pclath, cstack
   844 ;; Tracked objects:
   845 ;;		On entry : B1F/0
   846 ;;		On exit  : 0/0
   847 ;;		Unchanged: 0/0
   848 ;; Data sizes:     COMMON   BANK0   BANK1
   849 ;;      Params:         0       0       0
   850 ;;      Locals:         0       0       0
   851 ;;      Temps:          0       0       0
   852 ;;      Totals:         0       0       0
   853 ;;Total ram usage:        0 bytes
   854 ;; Hardware stack levels required when called:    5
   855 ;; This function calls:
   856 ;;		_SYSTEM_Initialize
   857 ;; This function is called by:
   858 ;;		Startup code after reset
   859 ;; This function uses a non-reentrant model
   860 ;;
   861                           
   862                           
   863                           ;psect for function _main
   864  006F                     _main:	
   865                           
   866                           ;main.c: 54: SYSTEM_Initialize();
   867                           
   868                           ;incstack = 0
   869                           ; Regs used in _main: [wreg+status,2+status,0+pclath+cstack]
   870  006F  206A               	fcall	_SYSTEM_Initialize
   871                           
   872                           ;main.c: 60: (INTCONbits.GIE = 1);
   873  0070  178B               	bsf	11,7	;volatile
   874                           
   875                           ;main.c: 63: (INTCONbits.PEIE = 1);
   876  0071  170B               	bsf	11,6	;volatile
   877  0072                     l139:	
   878                           ;main.c: 71: while (1) {
   879                           
   880  0072  2872               	goto	l139
   881  0073                     __end_of_main:	
   882                           
   883                           	psect	text1
   884  006A                     __ptext1:	
   885 ;; *************** function _SYSTEM_Initialize *****************
   886 ;; Defined at:
   887 ;;		line 70 in file "mcc_generated_files/mcc.c"
   888 ;; Parameters:    Size  Location     Type
   889 ;;		None
   890 ;; Auto vars:     Size  Location     Type
   891 ;;		None
   892 ;; Return value:  Size  Location     Type
   893 ;;		None               void
   894 ;; Registers used:
   895 ;;		wreg, status,2, status,0, pclath, cstack
   896 ;; Tracked objects:
   897 ;;		On entry : 0/0
   898 ;;		On exit  : 0/0
   899 ;;		Unchanged: 0/0
   900 ;; Data sizes:     COMMON   BANK0   BANK1
   901 ;;      Params:         0       0       0
   902 ;;      Locals:         0       0       0
   903 ;;      Temps:          0       0       0
   904 ;;      Totals:         0       0       0
   905 ;;Total ram usage:        0 bytes
   906 ;; Hardware stack levels used:    1
   907 ;; Hardware stack levels required when called:    4
   908 ;; This function calls:
   909 ;;		_CMP1_Initialize
   910 ;;		_OSCILLATOR_Initialize
   911 ;;		_PIN_MANAGER_Initialize
   912 ;;		_TMR1_Initialize
   913 ;; This function is called by:
   914 ;;		_main
   915 ;; This function uses a non-reentrant model
   916 ;;
   917                           
   918                           
   919                           ;psect for function _SYSTEM_Initialize
   920  006A                     _SYSTEM_Initialize:	
   921                           
   922                           ;mcc.c: 71: OSCILLATOR_Initialize();
   923                           
   924                           ;incstack = 0
   925                           ; Regs used in _SYSTEM_Initialize: [wreg+status,2+status,0+pclath+cstack]
   926  006A  205E               	fcall	_OSCILLATOR_Initialize
   927                           
   928                           ;mcc.c: 72: PIN_MANAGER_Initialize();
   929  006B  2043               	fcall	_PIN_MANAGER_Initialize
   930                           
   931                           ;mcc.c: 73: CMP1_Initialize();
   932  006C  2052               	fcall	_CMP1_Initialize
   933                           
   934                           ;mcc.c: 74: TMR1_Initialize();
   935  006D  2034               	fcall	_TMR1_Initialize
   936  006E  0008               	return
   937  006F                     __end_of_SYSTEM_Initialize:	
   938                           
   939                           	psect	text2
   940  0034                     __ptext2:	
   941 ;; *************** function _TMR1_Initialize *****************
   942 ;; Defined at:
   943 ;;		line 67 in file "mcc_generated_files/tmr1.c"
   944 ;; Parameters:    Size  Location     Type
   945 ;;		None
   946 ;; Auto vars:     Size  Location     Type
   947 ;;		None
   948 ;; Return value:  Size  Location     Type
   949 ;;		None               void
   950 ;; Registers used:
   951 ;;		wreg, status,2
   952 ;; Tracked objects:
   953 ;;		On entry : 0/0
   954 ;;		On exit  : 0/0
   955 ;;		Unchanged: 0/0
   956 ;; Data sizes:     COMMON   BANK0   BANK1
   957 ;;      Params:         0       0       0
   958 ;;      Locals:         0       0       0
   959 ;;      Temps:          0       0       0
   960 ;;      Totals:         0       0       0
   961 ;;Total ram usage:        0 bytes
   962 ;; Hardware stack levels used:    1
   963 ;; Hardware stack levels required when called:    3
   964 ;; This function calls:
   965 ;;		Nothing
   966 ;; This function is called by:
   967 ;;		_SYSTEM_Initialize
   968 ;; This function uses a non-reentrant model
   969 ;;
   970                           
   971                           
   972                           ;psect for function _TMR1_Initialize
   973  0034                     _TMR1_Initialize:	
   974                           
   975                           ;tmr1.c: 71: T1CON = 0x00;
   976                           
   977                           ;incstack = 0
   978                           ; Regs used in _TMR1_Initialize: [wreg+status,2]
   979  0034  0020               	movlb	0	; select bank0
   980  0035  0198               	clrf	24	;volatile
   981                           
   982                           ;tmr1.c: 74: T1GCON = 0x00;
   983  0036  0199               	clrf	25	;volatile
   984                           
   985                           ;tmr1.c: 77: TMR1H = 0x9E;
   986  0037  309E               	movlw	158
   987  0038  0097               	movwf	23	;volatile
   988                           
   989                           ;tmr1.c: 80: TMR1L = 0x58;
   990  0039  3058               	movlw	88
   991  003A  0096               	movwf	22	;volatile
   992                           
   993                           ;tmr1.c: 83: timer1ReloadVal = (TMR1H << 8) | TMR1L;
   994  003B  0817               	movf	23,w	;volatile
   995  003C  00F4               	movwf	_timer1ReloadVal+1	;volatile
   996  003D  0816               	movf	22,w	;volatile
   997  003E  00F3               	movwf	_timer1ReloadVal	;volatile
   998                           
   999                           ;tmr1.c: 86: PIR1bits.TMR1IF = 0;
  1000  003F  1011               	bcf	17,0	;volatile
  1001                           
  1002                           ;tmr1.c: 89: PIE1bits.TMR1IE = 1;
  1003  0040  0021               	movlb	1	; select bank1
  1004  0041  1411               	bsf	17,0	;volatile
  1005  0042  0008               	return
  1006  0043                     __end_of_TMR1_Initialize:	
  1007                           
  1008                           	psect	text3
  1009  0043                     __ptext3:	
  1010 ;; *************** function _PIN_MANAGER_Initialize *****************
  1011 ;; Defined at:
  1012 ;;		line 50 in file "mcc_generated_files/pin_manager.c"
  1013 ;; Parameters:    Size  Location     Type
  1014 ;;		None
  1015 ;; Auto vars:     Size  Location     Type
  1016 ;;		None
  1017 ;; Return value:  Size  Location     Type
  1018 ;;		None               void
  1019 ;; Registers used:
  1020 ;;		wreg, status,2
  1021 ;; Tracked objects:
  1022 ;;		On entry : 0/0
  1023 ;;		On exit  : 0/0
  1024 ;;		Unchanged: 0/0
  1025 ;; Data sizes:     COMMON   BANK0   BANK1
  1026 ;;      Params:         0       0       0
  1027 ;;      Locals:         0       0       0
  1028 ;;      Temps:          0       0       0
  1029 ;;      Totals:         0       0       0
  1030 ;;Total ram usage:        0 bytes
  1031 ;; Hardware stack levels used:    1
  1032 ;; Hardware stack levels required when called:    3
  1033 ;; This function calls:
  1034 ;;		Nothing
  1035 ;; This function is called by:
  1036 ;;		_SYSTEM_Initialize
  1037 ;; This function uses a non-reentrant model
  1038 ;;
  1039                           
  1040                           
  1041                           ;psect for function _PIN_MANAGER_Initialize
  1042  0043                     _PIN_MANAGER_Initialize:	
  1043                           
  1044                           ;pin_manager.c: 51: LATA = 0x00;
  1045                           
  1046                           ;incstack = 0
  1047                           ; Regs used in _PIN_MANAGER_Initialize: [wreg+status,2]
  1048  0043  0022               	movlb	2	; select bank2
  1049  0044  018C               	clrf	12	;volatile
  1050                           
  1051                           ;pin_manager.c: 52: TRISA = 0x1B;
  1052  0045  301B               	movlw	27
  1053  0046  0021               	movlb	1	; select bank1
  1054  0047  008C               	movwf	12	;volatile
  1055                           
  1056                           ;pin_manager.c: 53: ANSELA = 0x13;
  1057  0048  3013               	movlw	19
  1058  0049  0023               	movlb	3	; select bank3
  1059  004A  008C               	movwf	12	;volatile
  1060                           
  1061                           ;pin_manager.c: 54: WPUA = 0x00;
  1062  004B  0024               	movlb	4	; select bank4
  1063  004C  018C               	clrf	12	;volatile
  1064                           
  1065                           ;pin_manager.c: 56: OPTION_REGbits.nWPUEN = 0x01;
  1066  004D  0021               	movlb	1	; select bank1
  1067  004E  1795               	bsf	21,7	;volatile
  1068                           
  1069                           ;pin_manager.c: 58: APFCON = 0x00;
  1070  004F  0022               	movlb	2	; select bank2
  1071  0050  019D               	clrf	29	;volatile
  1072  0051  0008               	return
  1073  0052                     __end_of_PIN_MANAGER_Initialize:	
  1074                           
  1075                           	psect	text4
  1076  005E                     __ptext4:	
  1077 ;; *************** function _OSCILLATOR_Initialize *****************
  1078 ;; Defined at:
  1079 ;;		line 77 in file "mcc_generated_files/mcc.c"
  1080 ;; Parameters:    Size  Location     Type
  1081 ;;		None
  1082 ;; Auto vars:     Size  Location     Type
  1083 ;;		None
  1084 ;; Return value:  Size  Location     Type
  1085 ;;		None               void
  1086 ;; Registers used:
  1087 ;;		wreg, status,2
  1088 ;; Tracked objects:
  1089 ;;		On entry : 0/0
  1090 ;;		On exit  : 0/0
  1091 ;;		Unchanged: 0/0
  1092 ;; Data sizes:     COMMON   BANK0   BANK1
  1093 ;;      Params:         0       0       0
  1094 ;;      Locals:         0       0       0
  1095 ;;      Temps:          0       0       0
  1096 ;;      Totals:         0       0       0
  1097 ;;Total ram usage:        0 bytes
  1098 ;; Hardware stack levels used:    1
  1099 ;; Hardware stack levels required when called:    3
  1100 ;; This function calls:
  1101 ;;		Nothing
  1102 ;; This function is called by:
  1103 ;;		_SYSTEM_Initialize
  1104 ;; This function uses a non-reentrant model
  1105 ;;
  1106                           
  1107                           
  1108                           ;psect for function _OSCILLATOR_Initialize
  1109  005E                     _OSCILLATOR_Initialize:	
  1110                           
  1111                           ;mcc.c: 79: OSCCON = 0x52;
  1112                           
  1113                           ;incstack = 0
  1114                           ; Regs used in _OSCILLATOR_Initialize: [wreg+status,2]
  1115  005E  3052               	movlw	82
  1116  005F  0021               	movlb	1	; select bank1
  1117  0060  0099               	movwf	25	;volatile
  1118                           
  1119                           ;mcc.c: 81: OSCSTAT = 0x00;
  1120  0061  019A               	clrf	26	;volatile
  1121                           
  1122                           ;mcc.c: 83: OSCTUNE = 0x00;
  1123  0062  0198               	clrf	24	;volatile
  1124  0063  0008               	return
  1125  0064                     __end_of_OSCILLATOR_Initialize:	
  1126                           
  1127                           	psect	text5
  1128  0052                     __ptext5:	
  1129 ;; *************** function _CMP1_Initialize *****************
  1130 ;; Defined at:
  1131 ;;		line 60 in file "mcc_generated_files/cmp1.c"
  1132 ;; Parameters:    Size  Location     Type
  1133 ;;		None
  1134 ;; Auto vars:     Size  Location     Type
  1135 ;;		None
  1136 ;; Return value:  Size  Location     Type
  1137 ;;		None               void
  1138 ;; Registers used:
  1139 ;;		wreg
  1140 ;; Tracked objects:
  1141 ;;		On entry : 0/0
  1142 ;;		On exit  : 0/0
  1143 ;;		Unchanged: 0/0
  1144 ;; Data sizes:     COMMON   BANK0   BANK1
  1145 ;;      Params:         0       0       0
  1146 ;;      Locals:         0       0       0
  1147 ;;      Temps:          0       0       0
  1148 ;;      Totals:         0       0       0
  1149 ;;Total ram usage:        0 bytes
  1150 ;; Hardware stack levels used:    1
  1151 ;; Hardware stack levels required when called:    3
  1152 ;; This function calls:
  1153 ;;		Nothing
  1154 ;; This function is called by:
  1155 ;;		_SYSTEM_Initialize
  1156 ;; This function uses a non-reentrant model
  1157 ;;
  1158                           
  1159                           
  1160                           ;psect for function _CMP1_Initialize
  1161  0052                     _CMP1_Initialize:	
  1162                           
  1163                           ;cmp1.c: 67: PIE2bits.C1IE = 0;
  1164                           
  1165                           ;incstack = 0
  1166                           ; Regs used in _CMP1_Initialize: [wreg]
  1167  0052  0021               	movlb	1	; select bank1
  1168  0053  1292               	bcf	18,5	;volatile
  1169                           
  1170                           ;cmp1.c: 71: CM1CON0 = 0xA2;
  1171  0054  30A2               	movlw	162
  1172  0055  0022               	movlb	2	; select bank2
  1173  0056  0091               	movwf	17	;volatile
  1174                           
  1175                           ;cmp1.c: 74: CM1CON1 = 0x41;
  1176  0057  3041               	movlw	65
  1177  0058  0092               	movwf	18	;volatile
  1178                           
  1179                           ;cmp1.c: 78: PIR2bits.C1IF = 0;
  1180  0059  0020               	movlb	0	; select bank0
  1181  005A  1292               	bcf	18,5	;volatile
  1182                           
  1183                           ;cmp1.c: 81: PIE2bits.C1IE = 1;
  1184  005B  0021               	movlb	1	; select bank1
  1185  005C  1692               	bsf	18,5	;volatile
  1186  005D  0008               	return
  1187  005E                     __end_of_CMP1_Initialize:	
  1188                           
  1189                           	psect	intentry
  1190  0004                     __pintentry:	
  1191 ;; *************** function _INTERRUPT_InterruptManager *****************
  1192 ;; Defined at:
  1193 ;;		line 52 in file "mcc_generated_files/interrupt_manager.c"
  1194 ;; Parameters:    Size  Location     Type
  1195 ;;		None
  1196 ;; Auto vars:     Size  Location     Type
  1197 ;;		None
  1198 ;; Return value:  Size  Location     Type
  1199 ;;		None               void
  1200 ;; Registers used:
  1201 ;;		wreg, status,2, status,0, pclath, cstack
  1202 ;; Tracked objects:
  1203 ;;		On entry : 0/0
  1204 ;;		On exit  : 0/0
  1205 ;;		Unchanged: 0/0
  1206 ;; Data sizes:     COMMON   BANK0   BANK1
  1207 ;;      Params:         0       0       0
  1208 ;;      Locals:         0       0       0
  1209 ;;      Temps:          1       0       0
  1210 ;;      Totals:         1       0       0
  1211 ;;Total ram usage:        1 bytes
  1212 ;; Hardware stack levels used:    1
  1213 ;; Hardware stack levels required when called:    2
  1214 ;; This function calls:
  1215 ;;		_CMP1_ISR
  1216 ;;		_TMR1_ISR
  1217 ;; This function is called by:
  1218 ;;		Interrupt level 1
  1219 ;; This function uses a non-reentrant model
  1220 ;;
  1221                           
  1222  0004                     _INTERRUPT_InterruptManager:	
  1223                           
  1224                           ;incstack = 0
  1225                           ; Regs used in _INTERRUPT_InterruptManager: [wreg+status,2+status,0+pclath+cstack]
  1226  0004  147E               	bsf	126,0	;set compiler interrupt flag (level 1)
  1227  0005  3180               	pagesel	$
  1228  0006  0020               	movlb	0	; select bank0
  1229  0007  087F               	movf	127,w
  1230  0008  00F2               	movwf	??_INTERRUPT_InterruptManager
  1231                           
  1232                           ;interrupt_manager.c: 54: if (PIE2bits.C1IE == 1 && PIR2bits.C1IF == 1) {
  1233  0009  0021               	movlb	1	; select bank1
  1234  000A  1E92               	btfss	18,5	;volatile
  1235  000B  2811               	goto	i1l108
  1236  000C  0020               	movlb	0	; select bank0
  1237  000D  1E92               	btfss	18,5	;volatile
  1238  000E  2811               	goto	i1l108
  1239                           
  1240                           ;interrupt_manager.c: 55: CMP1_ISR();
  1241  000F  2064               	fcall	_CMP1_ISR
  1242                           
  1243                           ;interrupt_manager.c: 56: } else if (PIE1bits.TMR1IE == 1 && PIR1bits.TMR1IF == 1) {
  1244  0010  2818               	goto	i1l112
  1245  0011                     i1l108:	
  1246  0011  0021               	movlb	1	; select bank1
  1247  0012  1C11               	btfss	17,0	;volatile
  1248  0013  2818               	goto	i1l112
  1249  0014  0020               	movlb	0	; select bank0
  1250  0015  1C11               	btfss	17,0	;volatile
  1251  0016  2818               	goto	i1l112
  1252                           
  1253                           ;interrupt_manager.c: 57: TMR1_ISR();
  1254  0017  2021               	fcall	_TMR1_ISR
  1255  0018                     i1l112:	
  1256                           ;interrupt_manager.c: 58: } else {
  1257                           
  1258  0018  0872               	movf	??_INTERRUPT_InterruptManager,w
  1259  0019  0020               	movlb	0	; select bank0
  1260  001A  00FF               	movwf	127
  1261  001B  107E               	bcf	126,0	;clear compiler interrupt flag (level 1)
  1262  001C  0009               	retfie
  1263  001D                     __end_of_INTERRUPT_InterruptManager:	
  1264                           
  1265                           	psect	text7
  1266  0021                     __ptext7:	
  1267 ;; *************** function _TMR1_ISR *****************
  1268 ;; Defined at:
  1269 ;;		line 147 in file "mcc_generated_files/tmr1.c"
  1270 ;; Parameters:    Size  Location     Type
  1271 ;;		None
  1272 ;; Auto vars:     Size  Location     Type
  1273 ;;		None
  1274 ;; Return value:  Size  Location     Type
  1275 ;;		None               void
  1276 ;; Registers used:
  1277 ;;		wreg, status,2, status,0, pclath, cstack
  1278 ;; Tracked objects:
  1279 ;;		On entry : 0/0
  1280 ;;		On exit  : 0/0
  1281 ;;		Unchanged: 0/0
  1282 ;; Data sizes:     COMMON   BANK0   BANK1
  1283 ;;      Params:         0       0       0
  1284 ;;      Locals:         0       0       0
  1285 ;;      Temps:          2       0       0
  1286 ;;      Totals:         2       0       0
  1287 ;;Total ram usage:        2 bytes
  1288 ;; Hardware stack levels used:    1
  1289 ;; Hardware stack levels required when called:    1
  1290 ;; This function calls:
  1291 ;;		_TMR1_StopTimer
  1292 ;; This function is called by:
  1293 ;;		_INTERRUPT_InterruptManager
  1294 ;; This function uses a non-reentrant model
  1295 ;;
  1296                           
  1297                           
  1298                           ;psect for function _TMR1_ISR
  1299  0021                     _TMR1_ISR:	
  1300                           
  1301                           ;tmr1.c: 151: TMR1H = (timer1ReloadVal >> 8);
  1302                           
  1303                           ;incstack = 0
  1304                           ; Regs used in _TMR1_ISR: [wreg+status,2+status,0+pclath+cstack]
  1305  0021  0874               	movf	_timer1ReloadVal+1,w	;volatile
  1306  0022  0020               	movlb	0	; select bank0
  1307  0023  0097               	movwf	23	;volatile
  1308                           
  1309                           ;tmr1.c: 152: TMR1L = timer1ReloadVal;
  1310  0024  0873               	movf	_timer1ReloadVal,w	;volatile
  1311  0025  0096               	movwf	22	;volatile
  1312                           
  1313                           ;tmr1.c: 155: do { LATA5 = 0; } while(0);
  1314  0026  0022               	movlb	2	; select bank2
  1315  0027  128C               	bcf	12,5	;volatile
  1316                           
  1317                           ;tmr1.c: 156: TMR1_StopTimer();
  1318  0028  2073               	fcall	_TMR1_StopTimer
  1319                           
  1320                           ;tmr1.c: 158: _delay((unsigned long)((1000)*(500000/4000.0)));
  1321  0029  30A3               	movlw	163
  1322  002A  00F1               	movwf	??_TMR1_ISR+1
  1323  002B  3055               	movlw	85
  1324  002C  00F0               	movwf	??_TMR1_ISR
  1325  002D                     u6_27:	
  1326  002D  0BF0               	decfsz	??_TMR1_ISR,f
  1327  002E  282D               	goto	u6_27
  1328  002F  0BF1               	decfsz	??_TMR1_ISR+1,f
  1329  0030  282D               	goto	u6_27
  1330                           
  1331                           ;tmr1.c: 160: PIR1bits.TMR1IF = 0;
  1332  0031  0020               	movlb	0	; select bank0
  1333  0032  1011               	bcf	17,0	;volatile
  1334  0033  0008               	return
  1335  0034                     __end_of_TMR1_ISR:	
  1336                           
  1337                           	psect	text8
  1338  0073                     __ptext8:	
  1339 ;; *************** function _TMR1_StopTimer *****************
  1340 ;; Defined at:
  1341 ;;		line 100 in file "mcc_generated_files/tmr1.c"
  1342 ;; Parameters:    Size  Location     Type
  1343 ;;		None
  1344 ;; Auto vars:     Size  Location     Type
  1345 ;;		None
  1346 ;; Return value:  Size  Location     Type
  1347 ;;		None               void
  1348 ;; Registers used:
  1349 ;;		None
  1350 ;; Tracked objects:
  1351 ;;		On entry : 0/0
  1352 ;;		On exit  : 0/0
  1353 ;;		Unchanged: 0/0
  1354 ;; Data sizes:     COMMON   BANK0   BANK1
  1355 ;;      Params:         0       0       0
  1356 ;;      Locals:         0       0       0
  1357 ;;      Temps:          0       0       0
  1358 ;;      Totals:         0       0       0
  1359 ;;Total ram usage:        0 bytes
  1360 ;; Hardware stack levels used:    1
  1361 ;; This function calls:
  1362 ;;		Nothing
  1363 ;; This function is called by:
  1364 ;;		_TMR1_ISR
  1365 ;; This function uses a non-reentrant model
  1366 ;;
  1367                           
  1368                           
  1369                           ;psect for function _TMR1_StopTimer
  1370  0073                     _TMR1_StopTimer:	
  1371                           
  1372                           ;tmr1.c: 102: T1CONbits.TMR1ON = 0;
  1373                           
  1374                           ;incstack = 0
  1375                           ; Regs used in _TMR1_StopTimer: []
  1376  0073  0020               	movlb	0	; select bank0
  1377  0074  1018               	bcf	24,0	;volatile
  1378  0075  0008               	return
  1379  0076                     __end_of_TMR1_StopTimer:	
  1380                           
  1381                           	psect	text9
  1382  0064                     __ptext9:	
  1383 ;; *************** function _CMP1_ISR *****************
  1384 ;; Defined at:
  1385 ;;		line 90 in file "mcc_generated_files/cmp1.c"
  1386 ;; Parameters:    Size  Location     Type
  1387 ;;		None
  1388 ;; Auto vars:     Size  Location     Type
  1389 ;;		None
  1390 ;; Return value:  Size  Location     Type
  1391 ;;		None               void
  1392 ;; Registers used:
  1393 ;;		status,2, status,0, pclath, cstack
  1394 ;; Tracked objects:
  1395 ;;		On entry : 0/0
  1396 ;;		On exit  : 0/0
  1397 ;;		Unchanged: 0/0
  1398 ;; Data sizes:     COMMON   BANK0   BANK1
  1399 ;;      Params:         0       0       0
  1400 ;;      Locals:         0       0       0
  1401 ;;      Temps:          0       0       0
  1402 ;;      Totals:         0       0       0
  1403 ;;Total ram usage:        0 bytes
  1404 ;; Hardware stack levels used:    1
  1405 ;; Hardware stack levels required when called:    1
  1406 ;; This function calls:
  1407 ;;		_TMR1_StartTimer
  1408 ;; This function is called by:
  1409 ;;		_INTERRUPT_InterruptManager
  1410 ;; This function uses a non-reentrant model
  1411 ;;
  1412                           
  1413                           
  1414                           ;psect for function _CMP1_ISR
  1415  0064                     _CMP1_ISR:	
  1416                           
  1417                           ;incstack = 0
  1418                           ; Regs used in _CMP1_ISR: [status,2+status,0+pclath+cstack]
  1419                           ;cmp1.c: 92: do { LATA5 = 1; } while(0);
  1420  0064  0022               	movlb	2	; select bank2
  1421  0065  168C               	bsf	12,5	;volatile
  1422                           
  1423                           ;cmp1.c: 93: TMR1_StartTimer();
  1424  0066  2076               	fcall	_TMR1_StartTimer
  1425                           
  1426                           ;cmp1.c: 101: PIR2bits.C1IF = 0;
  1427  0067  0020               	movlb	0	; select bank0
  1428  0068  1292               	bcf	18,5	;volatile
  1429  0069  0008               	return
  1430  006A                     __end_of_CMP1_ISR:	
  1431                           
  1432                           	psect	text10
  1433  0076                     __ptext10:	
  1434 ;; *************** function _TMR1_StartTimer *****************
  1435 ;; Defined at:
  1436 ;;		line 95 in file "mcc_generated_files/tmr1.c"
  1437 ;; Parameters:    Size  Location     Type
  1438 ;;		None
  1439 ;; Auto vars:     Size  Location     Type
  1440 ;;		None
  1441 ;; Return value:  Size  Location     Type
  1442 ;;		None               void
  1443 ;; Registers used:
  1444 ;;		None
  1445 ;; Tracked objects:
  1446 ;;		On entry : 0/0
  1447 ;;		On exit  : 0/0
  1448 ;;		Unchanged: 0/0
  1449 ;; Data sizes:     COMMON   BANK0   BANK1
  1450 ;;      Params:         0       0       0
  1451 ;;      Locals:         0       0       0
  1452 ;;      Temps:          0       0       0
  1453 ;;      Totals:         0       0       0
  1454 ;;Total ram usage:        0 bytes
  1455 ;; Hardware stack levels used:    1
  1456 ;; This function calls:
  1457 ;;		Nothing
  1458 ;; This function is called by:
  1459 ;;		_CMP1_ISR
  1460 ;; This function uses a non-reentrant model
  1461 ;;
  1462                           
  1463                           
  1464                           ;psect for function _TMR1_StartTimer
  1465  0076                     _TMR1_StartTimer:	
  1466                           
  1467                           ;tmr1.c: 97: T1CONbits.TMR1ON = 1;
  1468                           
  1469                           ;incstack = 0
  1470                           ; Regs used in _TMR1_StartTimer: []
  1471  0076  0020               	movlb	0	; select bank0
  1472  0077  1418               	bsf	24,0	;volatile
  1473  0078  0008               	return
  1474  0079                     __end_of_TMR1_StartTimer:	
  1475  007E                     btemp	set	126	;btemp
  1476  007E                     int$flags	set	126
  1477  007E                     wtemp	set	126
  1478  007E                     wtemp0	set	126
  1479  0080                     wtemp1	set	128
  1480  0082                     wtemp2	set	130
  1481  0084                     wtemp3	set	132
  1482  0086                     wtemp4	set	134
  1483  0088                     wtemp5	set	136
  1484  007F                     wtemp6	set	127
  1485  007E                     ttemp	set	126
  1486  007E                     ttemp0	set	126
  1487  0081                     ttemp1	set	129
  1488  0084                     ttemp2	set	132
  1489  0087                     ttemp3	set	135
  1490  007F                     ttemp4	set	127
  1491  007E                     ltemp	set	126
  1492  007E                     ltemp0	set	126
  1493  0082                     ltemp1	set	130
  1494  0086                     ltemp2	set	134
  1495  0080                     ltemp3	set	128


Data Sizes:
    Strings     0
    Constant    0
    Data        0
    BSS         0
    Persistent  2
    Stack       0

Auto Spaces:
    Space          Size  Autos    Used
    COMMON           14      3       5
    BANK0            80      0       0
    BANK1            32      0       0

Pointer List with Targets:

    None.

Critical Paths under _main in COMMON

    None.

Critical Paths under _INTERRUPT_InterruptManager in COMMON

    _INTERRUPT_InterruptManager->_TMR1_ISR

Critical Paths under _main in BANK0

    None.

Critical Paths under _INTERRUPT_InterruptManager in BANK0

    None.

Critical Paths under _main in BANK1

    None.

Critical Paths under _INTERRUPT_InterruptManager in BANK1

    None.

Call Graph Tables:

 ---------------------------------------------------------------------------------
 (Depth) Function   	        Calls       Base Space   Used Autos Params    Refs
 ---------------------------------------------------------------------------------
 (0) _main                                                 0     0      0       0
                  _SYSTEM_Initialize
 ---------------------------------------------------------------------------------
 (1) _SYSTEM_Initialize                                    0     0      0       0
                    _CMP1_Initialize
              _OSCILLATOR_Initialize
             _PIN_MANAGER_Initialize
                    _TMR1_Initialize
 ---------------------------------------------------------------------------------
 (2) _TMR1_Initialize                                      0     0      0       0
 ---------------------------------------------------------------------------------
 (2) _PIN_MANAGER_Initialize                               0     0      0       0
 ---------------------------------------------------------------------------------
 (2) _OSCILLATOR_Initialize                                0     0      0       0
 ---------------------------------------------------------------------------------
 (2) _CMP1_Initialize                                      0     0      0       0
 ---------------------------------------------------------------------------------
 Estimated maximum stack depth 2
 ---------------------------------------------------------------------------------
 (Depth) Function   	        Calls       Base Space   Used Autos Params    Refs
 ---------------------------------------------------------------------------------
 (3) _INTERRUPT_InterruptManager                           1     1      0       0
                                              2 COMMON     1     1      0
                           _CMP1_ISR
                           _TMR1_ISR
 ---------------------------------------------------------------------------------
 (4) _TMR1_ISR                                             2     2      0       0
                                              0 COMMON     2     2      0
                     _TMR1_StopTimer
 ---------------------------------------------------------------------------------
 (5) _TMR1_StopTimer                                       0     0      0       0
 ---------------------------------------------------------------------------------
 (4) _CMP1_ISR                                             0     0      0       0
                    _TMR1_StartTimer
 ---------------------------------------------------------------------------------
 (5) _TMR1_StartTimer                                      0     0      0       0
 ---------------------------------------------------------------------------------
 Estimated maximum stack depth 5
 ---------------------------------------------------------------------------------

 Call Graph Graphs:

 _main (ROOT)
   _SYSTEM_Initialize
     _CMP1_Initialize
     _OSCILLATOR_Initialize
     _PIN_MANAGER_Initialize
     _TMR1_Initialize

 _INTERRUPT_InterruptManager (ROOT)
   _CMP1_ISR
     _TMR1_StartTimer
   _TMR1_ISR
     _TMR1_StopTimer

 Address spaces:
Name               Size   Autos  Total    Cost      Usage
BIGRAM              70      0       0       0        0.0%
EEDATA             100      0       0       0        0.0%
NULL                 0      0       0       0        0.0%
CODE                 0      0       0       0        0.0%
BITCOMMON            E      0       0       1        0.0%
BITSFR0              0      0       0       1        0.0%
SFR0                 0      0       0       1        0.0%
COMMON               E      3       5       2       35.7%
BITSFR1              0      0       0       2        0.0%
SFR1                 0      0       0       2        0.0%
BITSFR2              0      0       0       3        0.0%
SFR2                 0      0       0       3        0.0%
STACK                0      0       0       3        0.0%
BITSFR3              0      0       0       4        0.0%
SFR3                 0      0       0       4        0.0%
ABS                  0      0       5       4        0.0%
BITBANK0            50      0       0       5        0.0%
BITSFR4              0      0       0       5        0.0%
SFR4                 0      0       0       5        0.0%
BANK0               50      0       0       6        0.0%
BITSFR5              0      0       0       6        0.0%
SFR5                 0      0       0       6        0.0%
BITBANK1            20      0       0       7        0.0%
BITSFR6              0      0       0       7        0.0%
SFR6                 0      0       0       7        0.0%
BANK1               20      0       0       8        0.0%
BITSFR7              0      0       0       8        0.0%
SFR7                 0      0       0       8        0.0%
BITSFR8              0      0       0       9        0.0%
SFR8                 0      0       0       9        0.0%
DATA                 0      0       5       9        0.0%
BITSFR9              0      0       0      10        0.0%
SFR9                 0      0       0      10        0.0%
BITSFR10             0      0       0      11        0.0%
SFR10                0      0       0      11        0.0%
BITSFR11             0      0       0      12        0.0%
SFR11                0      0       0      12        0.0%
BITSFR12             0      0       0      13        0.0%
SFR12                0      0       0      13        0.0%
BITSFR13             0      0       0      14        0.0%
SFR13                0      0       0      14        0.0%
BITSFR14             0      0       0      15        0.0%
SFR14                0      0       0      15        0.0%
BITSFR15             0      0       0      16        0.0%
SFR15                0      0       0      16        0.0%
BITSFR16             0      0       0      17        0.0%
SFR16                0      0       0      17        0.0%
BITSFR17             0      0       0      18        0.0%
SFR17                0      0       0      18        0.0%
BITSFR18             0      0       0      19        0.0%
SFR18                0      0       0      19        0.0%
BITSFR19             0      0       0      20        0.0%
SFR19                0      0       0      20        0.0%
BITSFR20             0      0       0      21        0.0%
SFR20                0      0       0      21        0.0%
BITSFR21             0      0       0      22        0.0%
SFR21                0      0       0      22        0.0%
BITSFR22             0      0       0      23        0.0%
SFR22                0      0       0      23        0.0%
BITSFR23             0      0       0      24        0.0%
SFR23                0      0       0      24        0.0%
BITSFR24             0      0       0      25        0.0%
SFR24                0      0       0      25        0.0%
BITSFR25             0      0       0      26        0.0%
SFR25                0      0       0      26        0.0%
BITSFR26             0      0       0      27        0.0%
SFR26                0      0       0      27        0.0%
BITSFR27             0      0       0      28        0.0%
SFR27                0      0       0      28        0.0%
BITSFR28             0      0       0      29        0.0%
SFR28                0      0       0      29        0.0%
BITSFR29             0      0       0      30        0.0%
SFR29                0      0       0      30        0.0%
BITSFR30             0      0       0      31        0.0%
SFR30                0      0       0      31        0.0%
BITSFR31             0      0       0      32        0.0%
SFR31                0      0       0      32        0.0%


Microchip Technology PIC Macro Assembler V1.35 build -356382666 
Symbol Table                                                                                   Sun Jan 10 15:45:49 2016

                        __CFG_CP$OFF 0000                    ??_CMP1_Initialize 0073  
                                l139 0072                         __CFG_CPD$OFF 0000  
                    _timer1ReloadVal 0073                         __CFG_BORV$LO 0000  
                       __CFG_IESO$ON 0000                         __CFG_LVP$OFF 0000  
                               _LATA 010C                                 _WPUA 020C  
                               u6_27 002D                         __CFG_WRT$OFF 0000  
                      __CFG_FCMEN$ON 0000                                 _main 006F  
                               btemp 007E                        __CFG_BOREN$ON 0000  
                               ltemp 007E                                 start 001D  
                               ttemp 007E                                 wtemp 007E  
                   __end_of_CMP1_ISR 006A                        __CFG_PLLEN$ON 0000  
     __size_of_OSCILLATOR_Initialize 0006        __end_of_OSCILLATOR_Initialize 0064  
                              ?_main 0070                        __CFG_WDTE$OFF 0000  
                    _TMR1_StartTimer 0076                                _T1CON 0018  
                              _LATA5 0865                                i1l112 0018  
                              i1l108 0011                                _TMR1H 0017  
                              _TMR1L 0016                                _TRISA 008C  
                   __end_of_TMR1_ISR 0034              __end_of_TMR1_Initialize 0043  
                              ltemp0 007E                                ltemp1 0082  
                              ltemp2 0086                                ltemp3 0080  
                              ttemp0 007E                                ttemp1 0081  
                              ttemp2 0084                                ttemp3 0087  
                              ttemp4 007F                                wtemp0 007E  
                              wtemp1 0080                                wtemp2 0082  
                              wtemp3 0084                                wtemp4 0086  
                              wtemp5 0088                                wtemp6 007F  
                     __CFG_MCLRE$OFF 0000                      __initialization 001E  
                       __end_of_main 0073          ?_INTERRUPT_InterruptManager 0070  
                             ??_main 0073                               _APFCON 011D  
                             _ANSELA 018C                               _T1GCON 0019  
                             _OSCCON 0099                       __CFG_PWRTE$OFF 0000  
            __end_of_TMR1_StartTimer 0079                       __CFG_STVREN$ON 0000  
                          ?_CMP1_ISR 0070                     ?_TMR1_Initialize 0070  
                  _SYSTEM_Initialize 006A              __end_of__initialization 001E  
                    _CMP1_Initialize 0052                   ?_SYSTEM_Initialize 0070  
                     __pcstackCOMMON 0070                  ??_SYSTEM_Initialize 0073  
                          ?_TMR1_ISR 0070                       _OPTION_REGbits 0095  
                         ??_CMP1_ISR 0070            __end_of_SYSTEM_Initialize 006F  
                         __pnvCOMMON 0073                           __pmaintext 006F  
                   ?_TMR1_StartTimer 0070                           ??_TMR1_ISR 0070  
                         __pintentry 0004                              _CM1CON0 0111  
                            _CM1CON1 0112              __size_of_TMR1_StopTimer 0003  
                            _OSCSTAT 009A                              _OSCTUNE 0098  
            __end_of_CMP1_Initialize 005E                              __ptext1 006A  
                            __ptext2 0034                              __ptext3 0043  
                            __ptext4 005E                              __ptext5 0052  
                            __ptext7 0021                              __ptext8 0073  
                            __ptext9 0064                            _T1CONbits 0018  
              _OSCILLATOR_Initialize 005E             ??_PIN_MANAGER_Initialize 0073  
         __size_of_SYSTEM_Initialize 0005                 end_of_initialization 001E  
                   __CFG_FOSC$INTOSC 0000                     ?_CMP1_Initialize 0070  
                  __size_of_CMP1_ISR 0006                          _CM1CON0bits 0111  
                  __size_of_TMR1_ISR 0013                       _TMR1_StopTimer 0073  
             ?_OSCILLATOR_Initialize 0070                  start_initialization 001E  
    __size_of_PIN_MANAGER_Initialize 000F             __size_of_TMR1_Initialize 000F  
             __end_of_TMR1_StopTimer 0076                            ___latbits 0000  
             _PIN_MANAGER_Initialize 0043                      ?_TMR1_StopTimer 0070  
       ??_INTERRUPT_InterruptManager 0072             __size_of_TMR1_StartTimer 0003  
                           _CMP1_ISR 0064                             _PIE1bits 0091  
                           _PIE2bits 0092  __size_of_INTERRUPT_InterruptManager 0019  
                           _PIR1bits 0011                             _PIR2bits 0012  
                           _TMR1_ISR 0021                    ??_TMR1_Initialize 0073  
            ??_OSCILLATOR_Initialize 0073                             __ptext10 0076  
                         _T1GCONbits 0019                    ??_TMR1_StartTimer 0070  
                      __size_of_main 0004             __size_of_CMP1_Initialize 000C  
                           int$flags 007E   __end_of_INTERRUPT_InterruptManager 001D  
         _INTERRUPT_InterruptManager 0004                           _INTCONbits 000B  
                           intlevel1 0000              ?_PIN_MANAGER_Initialize 0070  
                  __CFG_CLKOUTEN$OFF 0000                     ??_TMR1_StopTimer 0070  
     __end_of_PIN_MANAGER_Initialize 0052                      _TMR1_Initialize 0034  
